(dp0
S'Mu17TkMu8'
p1
(dp2
S'Tight'
p3
(dp4
S'overall'
p5
(dp6
S'(20<mu1<Infty,20<mu2<Infty)'
p7
(dp8
S'ratio'
p9
(dp10
S'syst_uncrt'
p11
F0.014149280653330924
sS'efficiency'
p12
F0.9978935718536377
sS'stat_uncrt'
p13
F0.0021585555535291482
ssS'data'
p14
(dp15
g11
F0.013123585164301137
sg12
F0.9255552887916565
sg13
F0.0019907970390810655
ssS'mc'
p16
(dp17
g11
F0.0
sg12
F0.9275090098381042
sg13
F0.00021267437985542374
sssS'(10<mu1<20,20<mu2<Infty)'
p18
(dp19
g9
(dp20
g11
F0.014355561347079743
sg12
F0.9925222992897034
sg13
F0.009823889344961013
ssg14
(dp21
g11
F0.012823671090641885
sg12
F0.886609673500061
sg13
F0.008751604454687353
ssg16
(dp22
g11
F0.0
sg12
F0.8932894468307495
sg13
F0.0006528621913726822
ssssS'(eta,eta)'
p23
(dp24
g7
(dp25
S'(2.1,2.4)(0.0,0.9)'
p26
(dp27
g9
(dp28
g11
F0.014515347895974594
sg12
F1.0154072046279907
sg13
F0.00397658899619635
ssg14
(dp29
g11
F0.013017959323339478
sg12
F0.9106589555740356
sg13
F0.0034487192889542176
ssg16
(dp30
g11
F0.0
sg12
F0.8968414664268494
sg13
F0.0005355130472349865
sssS'(2.1,2.4)(1.2,2.1)'
p31
(dp32
g9
(dp33
g11
F0.014782303127523256
sg12
F1.0063549280166626
sg13
F0.010424332314307165
ssg14
(dp34
g11
F0.012613192515134701
sg12
F0.8586839437484741
sg13
F0.008873775255201258
ssg16
(dp35
g11
F0.0
sg12
F0.853264331817627
sg13
F0.0006238546142785515
sssS'(0.0,0.9)(0.0,0.9)'
p36
(dp37
g9
(dp38
g11
F0.01405824119792712
sg12
F0.9855375289916992
sg13
F0.0029892799603853364
ssg14
(dp39
g11
F0.013581143988998227
sg12
F0.9520911574363708
sg13
F0.0028758634800311227
ssg16
(dp40
g11
F0.0
sg12
F0.9660627841949463
sg13
F0.00026624439089939375
sssS'(1.2,2.1)(1.2,2.1)'
p41
(dp42
g9
(dp43
g11
F0.014837142391122831
sg12
F1.0140272378921509
sg13
F0.008730336786785867
ssg14
(dp44
g11
F0.013116245786649395
sg12
F0.896414577960968
sg13
F0.00769672114818387
ssg16
(dp45
g11
F0.0
sg12
F0.8840143084526062
sg13
F0.0005611030049201705
sssS'(0.9,1.2)(0.0,0.9)'
p46
(dp47
g9
(dp48
g11
F0.014088650162950196
sg12
F0.9846170544624329
sg13
F0.003793048061619536
ssg14
(dp49
g11
F0.013543431443499603
sg12
F0.9465126991271973
sg13
F0.00363875979923049
ssg16
(dp50
g11
F0.0
sg12
F0.9613016247749329
sg13
F0.0002505023073530363
sssS'(1.2,2.1)(0.9,1.2)'
p51
(dp52
g9
(dp53
g11
F0.014508640801021436
sg12
F1.0042598247528076
sg13
F0.0038163475742111724
ssg14
(dp54
g11
F0.013334758095790161
sg12
F0.9230012893676758
sg13
F0.003474888166400557
ssg16
(dp55
g11
F0.0
sg12
F0.9190987348556519
sg13
F0.0004243212155056787
sssS'(2.1,2.4)(0.9,1.2)'
p56
(dp57
g9
(dp58
g11
F0.014433231979389713
sg12
F0.9978873133659363
sg13
F0.006921780547372767
ssg14
(dp59
g11
F0.01285327551324676
sg12
F0.888649582862854
sg13
F0.006109073196008409
ssg16
(dp60
g11
F0.0
sg12
F0.890535831451416
sg13
F0.0008033071217702896
sssS'(0.9,1.2)(0.9,1.2)'
p61
(dp62
g9
(dp63
g11
F0.014249548887398189
sg12
F1.0027027130126953
sg13
F0.008507170116986266
ssg14
(dp64
g11
F0.013614205479308365
sg12
F0.9579952955245972
sg13
F0.008087967711540325
ssg16
(dp65
g11
F0.0
sg12
F0.9554131031036377
sg13
F0.0007856542906809472
sssS'(1.2,2.1)(0.0,0.9)'
p66
(dp67
g9
(dp68
g11
F0.014469144248417689
sg12
F1.002593994140625
sg13
F0.003404526550995893
ssg14
(dp69
g11
F0.013368310755285863
sg12
F0.926312267780304
sg13
F0.003136727829576005
ssg16
(dp70
g11
F0.0
sg12
F0.923924446105957
sg13
F0.00025701106999731125
sssS'(2.1,2.4)(2.1,2.4)'
p71
(dp72
g9
(dp73
g11
F0.014861887639200754
sg12
F1.023253083229065
sg13
F0.02672830191536979
ssg14
(dp74
g11
F0.012290951129215143
sg12
F0.8462420105934143
sg13
F0.022051840877619154
ssg16
(dp75
g11
F0.0
sg12
F0.8270114660263062
sg13
F0.0014759177074176928
ssssg18
(dp76
S'(0.0,1.2)(1.2,2.4)'
p77
(dp78
g9
(dp79
g11
F0.014237148873750405
sg12
F0.9827550649642944
sg13
F0.01573327297383281
ssg14
(dp80
g11
F0.012890689511516415
sg12
F0.8898123502731323
sg13
F0.014212701400312507
ssg16
(dp81
g11
F0.0
sg12
F0.9054263234138489
sg13
F0.0009789832314864495
sssS'(1.2,2.4)(0.0,1.2)'
p82
(dp83
g9
(dp84
g11
F0.014495992704507056
sg12
F0.9924418330192566
sg13
F0.0016211023189356523
ssg14
(dp85
g11
F0.012917795073464656
sg12
F0.8843933939933777
sg13
F0.0008845901529587728
ssg16
(dp86
g11
F0.0
sg12
F0.8911287188529968
sg13
F0.0011507988508746459
sssS'(0.0,1.2)(0.0,1.2)'
p87
(dp88
g9
(dp89
g11
F0.014048099748329237
sg12
F0.9791733026504517
sg13
F0.020095871770118748
ssg14
(dp90
g11
F0.013364607103746932
sg12
F0.9315328598022461
sg13
F0.01906566326667975
ssg16
(dp91
g11
F0.0
sg12
F0.9513462781906128
sg13
F0.0014121051328201428
sssS'(1.2,2.4)(1.2,2.4)'
p92
(dp93
g9
(dp94
g11
F0.015133435061370049
sg12
F1.030277132987976
sg13
F0.02969572696181146
ssg14
(dp95
g11
F0.01247056861307419
sg12
F0.8489904403686523
sg13
F0.024407681099059435
ssg16
(dp96
g11
F0.0
sg12
F0.8240408301353455
sg13
F0.001694251155689727
ssssssS'Loose'
p97
(dp98
g5
(dp99
g7
(dp100
g9
(dp101
g11
F0.014130324948068743
sg12
F0.9957866668701172
sg13
F0.0022753264088191854
ssg14
(dp102
g11
F0.01276485382163798
sg12
F0.8995596766471863
sg13
F0.0020415166004496823
ssg16
(dp103
g11
F0.0
sg12
F0.9033659100532532
sg13
F0.0002399359111415746
sssg18
(dp104
g9
(dp105
g11
F0.014367204459229654
sg12
F0.9917296767234802
sg13
F0.010185942172524408
ssg14
(dp106
g11
F0.01242638018019374
sg12
F0.8577597737312317
sg13
F0.00878140743470062
ssg16
(dp107
g11
F0.0
sg12
F0.8649128675460815
sg13
F0.0007139646523545598
ssssg23
(dp108
g7
(dp109
S'(2.1,2.4)(0.0,0.9)'
p110
(dp111
g9
(dp112
g11
F0.014626112460379492
sg12
F1.0162640810012817
sg13
F0.005089132637149887
ssg14
(dp113
g11
F0.012745133359981724
sg12
F0.8855676054954529
sg13
F0.004302467756087951
ssg16
(dp114
g11
F0.0
sg12
F0.871396541595459
sg13
F0.0005735911210405523
sssS'(2.1,2.4)(1.2,2.1)'
p115
(dp116
g9
(dp117
g11
F0.01495911629511552
sg12
F1.0129103660583496
sg13
F0.010702980433439858
ssg14
(dp118
g11
F0.012337962361955328
sg12
F0.835426390171051
sg13
F0.008803519914379613
ssg16
(dp119
g11
F0.0
sg12
F0.8247793912887573
sg13
F0.0006528542296359324
sssS'(0.0,0.9)(0.0,0.9)'
p120
(dp121
g9
(dp122
g11
F0.01403351498833131
sg12
F0.9820985198020935
sg13
F0.0031802239590060953
ssg14
(dp123
g11
F0.013251105238752276
sg12
F0.9273436069488525
sg13
F0.0029863148306560512
ssg16
(dp124
g11
F0.0
sg12
F0.9442470669746399
sg13
F0.0003208448538864019
sssS'(1.2,2.1)(1.2,2.1)'
p125
(dp126
g9
(dp127
g11
F0.014893125849477447
sg12
F1.0137946605682373
sg13
F0.009032048622829532
ssg14
(dp128
g11
F0.012719427569108424
sg12
F0.8658280968666077
sg13
F0.007690754024682963
ssg16
(dp129
g11
F0.0
sg12
F0.8540468811988831
sg13
F0.0005874044582258518
sssS'(0.9,1.2)(0.0,0.9)'
p130
(dp131
g9
(dp132
g11
F0.014102348827547833
sg12
F0.984017014503479
sg13
F0.0039747217435117145
ssg14
(dp133
g11
F0.013307813028233789
sg12
F0.9285759329795837
sg13
F0.0037418602675954368
ssg16
(dp134
g11
F0.0
sg12
F0.94366055727005
sg13
F0.000279689939399333
sssS'(1.2,2.1)(0.9,1.2)'
p135
(dp136
g9
(dp137
g11
F0.014581262515641603
sg12
F1.0080424547195435
sg13
F0.0038818114990734577
ssg14
(dp138
g11
F0.01307917267668711
sg12
F0.9041962027549744
sg13
F0.003445184125302798
ssg16
(dp139
g11
F0.0
sg12
F0.8969907760620117
sg13
F0.00045324861520832895
sssS'(2.1,2.4)(0.9,1.2)'
p140
(dp141
g9
(dp142
g11
F0.014577475243016341
sg12
F1.0018730163574219
sg13
F0.019359457878642128
ssg14
(dp143
g11
F0.01267757465744683
sg12
F0.8712993860244751
sg13
F0.016818951446427366
ssg16
(dp144
g11
F0.0
sg12
F0.8696675300598145
sg13
F0.0008746434903665406
sssS'(0.9,1.2)(0.9,1.2)'
p145
(dp146
g9
(dp147
g11
F0.01429098208125915
sg12
F1.0032191276550293
sg13
F0.009773859083219236
ssg14
(dp148
g11
F0.013457889328416158
sg12
F0.9447364807128906
sg13
F0.009161413011088474
ssg16
(dp149
g11
F0.0
sg12
F0.9417049884796143
sg13
F0.0008700752285559197
sssS'(1.2,2.1)(0.0,0.9)'
p150
(dp151
g9
(dp152
g11
F0.014463561635463553
sg12
F0.997523307800293
sg13
F0.0036993700943485737
ssg14
(dp153
g11
F0.012983260635059167
sg12
F0.8954281210899353
sg13
F0.0033148915909490943
ssg16
(dp154
g11
F0.0
sg12
F0.8976591229438782
sg13
F0.00023379209292185142
sssS'(2.1,2.4)(2.1,2.4)'
p155
(dp156
g9
(dp157
g11
F0.01516291368344491
sg12
F1.0375136137008667
sg13
F0.03727598304251894
ssg14
(dp158
g11
F0.01212880503507145
sg12
F0.8299064636230469
sg13
F0.029770047149678527
ssg16
(dp159
g11
F0.0
sg12
F0.7998993396759033
sg13
F0.0016061653233115326
ssssg18
(dp160
S'(0.0,1.2)(1.2,2.4)'
p161
(dp162
g9
(dp163
g11
F0.01418795727473383
sg12
F0.9734494090080261
sg13
F0.0188534838772368
ssg14
(dp164
g11
F0.012450278798203417
sg12
F0.8542255759239197
sg13
F0.01650918167063964
ssg16
(dp165
g11
F0.0
sg12
F0.8775244355201721
sg13
F0.0011071627539379655
sssS'(1.2,2.4)(0.0,1.2)'
p166
(dp167
g9
(dp168
g11
F0.014505654165466692
sg12
F0.9905534386634827
sg13
F0.014160898791281334
ssg14
(dp169
g11
F0.012506217303393139
sg12
F0.8540171384811401
sg13
F0.012146340197000205
ssg16
(dp170
g11
F0.0
sg12
F0.8621615767478943
sg13
F0.0012459983570638697
sssS'(0.0,1.2)(0.0,1.2)'
p171
(dp172
g9
(dp173
g11
F0.014027904890967202
sg12
F0.9796593189239502
sg13
F0.017520788942179583
ssg14
(dp174
g11
F0.013052136722192409
sg12
F0.9115151166915894
sg13
F0.016227386198111288
ssg16
(dp175
g11
F0.0
sg12
F0.9304409027099609
sg13
F0.0015531153768265813
sssS'(1.2,2.4)(1.2,2.4)'
p176
(dp177
g9
(dp178
g11
F0.015224480198037885
sg12
F1.0377365350723267
sg13
F0.02864142278829288
ssg14
(dp179
g11
F0.012060785375576456
sg12
F0.8220915794372559
sg13
F0.022617189879007772
ssg16
(dp180
g11
F0.0
sg12
F0.7921968698501587
sg13
F0.0017396763377222975
sssssssS'Mu17Mu8_OR_Mu17TkMu8'
p181
(dp182
g3
(dp183
g5
(dp184
g7
(dp185
g9
(dp186
g11
F0.01368670450915057
sg12
F0.976266086101532
sg13
F0.001535000897554653
ssg14
(dp187
g11
F0.013182888313560176
sg12
F0.9403291344642639
sg13
F0.0014663076040946433
ssg16
(dp188
g11
F0.0
sg12
F0.9631893634796143
sg13
F0.00019402576705045095
sssg18
(dp189
g9
(dp190
g11
F0.013832796213016422
sg12
F0.9735361337661743
sg13
F0.006409242917513339
ssg14
(dp191
g11
F0.012954075878774132
sg12
F0.9116928577423096
sg13
F0.005984388463039928
ssg16
(dp192
g11
F0.0
sg12
F0.9364755749702454
sg13
F0.00047245948511034057
ssssg23
(dp193
g7
(dp194
S'(2.1,2.4)(0.0,0.9)'
p195
(dp196
g9
(dp197
g11
F0.013550069273007503
sg12
F0.9870223999023438
sg13
F0.0027032176971414855
ssg14
(dp198
g11
F0.01263967616880463
sg12
F0.9207068085670471
sg13
F0.002495691525685799
ssg16
(dp199
g11
F0.0
sg12
F0.9328128099441528
sg13
F0.0002776214428004362
sssS'(2.1,2.4)(1.2,2.1)'
p200
(dp201
g9
(dp202
g11
F0.013483977246842627
sg12
F0.9709259867668152
sg13
F0.007352922740428524
ssg14
(dp203
g11
F0.01233808123243569
sg12
F0.8884140253067017
sg13
F0.006722187707771473
ssg16
(dp204
g11
F0.0
sg12
F0.9150184988975525
sg13
F0.0002984066908159123
sssS'(0.0,0.9)(0.0,0.9)'
p205
(dp206
g9
(dp207
g11
F0.013686222636378368
sg12
F0.9794256091117859
sg13
F0.0017567092647354722
ssg14
(dp208
g11
F0.013433361621998798
sg12
F0.9613301157951355
sg13
F0.0017191009169504692
ssg16
(dp209
g11
F0.0
sg12
F0.9815244078636169
sg13
F0.00013439187118403375
sssS'(1.2,2.1)(1.2,2.1)'
p210
(dp211
g9
(dp212
g11
F0.013703628326987226
sg12
F0.971450686454773
sg13
F0.0004839606562173726
ssg14
(dp213
g11
F0.013007455208234119
sg12
F0.9220989346504211
sg13
F0.00041032111433747184
ssg16
(dp214
g11
F0.0
sg12
F0.9491978883743286
sg13
F0.00020727122942650804
sssS'(0.9,1.2)(0.0,0.9)'
p215
(dp216
g9
(dp217
g11
F0.01370431252970258
sg12
F0.9769914746284485
sg13
F0.0029824338470622173
ssg14
(dp218
g11
F0.013386126529526607
sg12
F0.9543083906173706
sg13
F0.002909607538012735
ssg16
(dp219
g11
F0.0
sg12
F0.9767815470695496
sg13
F0.00013597277893670978
sssS'(1.2,2.1)(0.9,1.2)'
p220
(dp221
g9
(dp222
g11
F0.01371533383854115
sg12
F0.9749574065208435
sg13
F0.00250677708402609
ssg14
(dp223
g11
F0.013167698085414289
sg12
F0.9360247850418091
sg13
F0.002397424049634078
ssg16
(dp224
g11
F0.0
sg12
F0.9600754976272583
sg13
F0.00019038030461673836
sssS'(2.1,2.4)(0.9,1.2)'
p225
(dp226
g9
(dp227
g11
F0.013488463016163736
sg12
F0.9735462069511414
sg13
F0.010571967716399035
ssg14
(dp228
g11
F0.012480015449390505
sg12
F0.9007574915885925
sg13
F0.009778414044753662
ssg16
(dp229
g11
F0.0
sg12
F0.9252389073371887
sg13
F0.00036159994284109707
sssS'(0.9,1.2)(0.9,1.2)'
p230
(dp231
g9
(dp232
g11
F0.013815989779193382
sg12
F0.9913288950920105
sg13
F0.005741289129600183
ssg14
(dp233
g11
F0.013412267630746212
sg12
F0.9623609185218811
sg13
F0.005551701934880388
ssg16
(dp234
g11
F0.0
sg12
F0.9707786440849304
sg13
F0.00047835704855720145
sssS'(1.2,2.1)(0.0,0.9)'
p235
(dp236
g9
(dp237
g11
F0.01369411636956261
sg12
F0.975059986114502
sg13
F0.0023747852166417023
ssg14
(dp238
g11
F0.01324423550464841
sg12
F0.9430272579193115
sg13
F0.002293653217213045
ssg16
(dp239
g11
F0.0
sg12
F0.9671478271484375
sg13
F0.00012150052651800277
sssS'(2.1,2.4)(2.1,2.4)'
p240
(dp241
g9
(dp242
g11
F0.013292164187791963
sg12
F0.9721791744232178
sg13
F0.02130545607402188
ssg14
(dp243
g11
F0.011712547957498645
sg12
F0.8566471934318542
sg13
F0.01876607750215083
ssg16
(dp244
g11
F0.0
sg12
F0.8811618685722351
sg13
F0.0005366253050240747
ssssg18
(dp245
S'(0.0,1.2)(1.2,2.4)'
p246
(dp247
g9
(dp248
g11
F0.014806264216833814
sg12
F1.0328325033187866
sg13
F0.011306227044297908
ssg14
(dp249
g11
F0.013956306042481964
sg12
F0.9735423922538757
sg13
F0.010643231727102218
ssg16
(dp250
g11
F0.0
sg12
F0.9425947070121765
sg13
F0.0005264755938339197
sssS'(1.2,2.4)(0.0,1.2)'
p251
(dp252
g9
(dp253
g11
F0.015095828895752953
sg12
F1.0592424869537354
sg13
F0.008067861459818512
ssg14
(dp254
g11
F0.014035220442155131
sg12
F0.9848218560218811
sg13
F0.007463123734679628
ssg16
(dp255
g11
F0.0
sg12
F0.929741621017456
sg13
F0.0007059623215400514
sssS'(0.0,1.2)(0.0,1.2)'
p256
(dp257
g9
(dp258
g11
F0.01451080409876198
sg12
F1.0194480419158936
sg13
F0.013968954325091227
ssg14
(dp259
g11
F0.014052046024119932
sg12
F0.9872183203697205
sg13
F0.013506878596977778
ssg16
(dp260
g11
F0.0
sg12
F0.9683850407600403
sg13
F0.0007065848980047845
sssS'(1.2,2.4)(1.2,2.4)'
p261
(dp262
g9
(dp263
g11
F0.015409383532934405
sg12
F1.0661911964416504
sg13
F0.021567168985624253
ssg14
(dp264
g11
F0.013850733036962274
sg12
F0.9583465456962585
sg13
F0.019363459093151403
ssg16
(dp265
g11
F0.0
sg12
F0.8988505601882935
sg13
F0.0008648351109399825
ssssssg97
(dp266
g5
(dp267
g7
(dp268
g9
(dp269
g11
F0.013540584645054834
sg12
F0.9659287333488464
sg13
F0.001621228464439433
ssg14
(dp270
g11
F0.01276581471519881
sg12
F0.910659909248352
sg13
F0.0015199674478475656
ssg16
(dp271
g11
F0.0
sg12
F0.9427816271781921
sg13
F0.00016659507105099252
sssg18
(dp272
g9
(dp273
g11
F0.013698891686361006
sg12
F0.9631931781768799
sg13
F0.006580109056798819
ssg14
(dp274
g11
F0.01251263773145308
sg12
F0.8797855377197266
sg13
F0.005987753677575219
ssg16
(dp275
g11
F0.0
sg12
F0.9134051203727722
sg13
F0.000539361091968279
ssssg23
(dp276
g7
(dp277
S'(2.1,2.4)(0.0,0.9)'
p278
(dp279
g9
(dp280
g11
F0.013887606463597334
sg12
F0.9736082553863525
sg13
F0.004469050997922733
ssg14
(dp281
g11
F0.012718550204690746
sg12
F0.8916499018669128
sg13
F0.0040840608787144584
ssg16
(dp282
g11
F0.0
sg12
F0.9158203601837158
sg13
F0.00026721296496162316
sssS'(2.1,2.4)(1.2,2.1)'
p283
(dp284
g9
(dp285
g11
F0.013873451429846185
sg12
F0.95981764793396
sg13
F0.007300523284793728
ssg14
(dp286
g11
F0.012412945689552866
sg12
F0.8587736487388611
sg13
F0.006526778654949394
ssg16
(dp287
g11
F0.0
sg12
F0.8947272300720215
sg13
F0.0002765006371938385
sssS'(0.0,0.9)(0.0,0.9)'
p288
(dp289
g9
(dp290
g11
F0.013776685115062018
sg12
F0.9698728919029236
sg13
F0.00223571404847101
ssg14
(dp291
g11
F0.013244335044071383
sg12
F0.9323956966400146
sg13
F0.002096426541124478
ssg16
(dp292
g11
F0.0
sg12
F0.9613586068153381
sg13
F0.00042453928736192715
sssS'(1.2,2.1)(1.2,2.1)'
p293
(dp294
g9
(dp295
g11
F0.013829233530409702
sg12
F0.9559199213981628
sg13
F0.006057115485181546
ssg14
(dp296
g11
F0.012765249732462576
sg12
F0.8823739886283875
sg13
F0.005583940798796674
ssg16
(dp297
g11
F0.0
sg12
F0.9230626821517944
sg13
F0.000295676263559184
sssS'(0.9,1.2)(0.0,0.9)'
p298
(dp299
g9
(dp300
g11
F0.013832189314296025
sg12
F0.9697871804237366
sg13
F0.003235016416392594
ssg14
(dp301
g11
F0.013295304775819191
sg12
F0.9321464896202087
sg13
F0.0031048937659142023
ssg16
(dp302
g11
F0.0
sg12
F0.9611852169036865
sg13
F0.0001607042870715832
sssS'(1.2,2.1)(0.9,1.2)'
p303
(dp304
g9
(dp305
g11
F0.013874374133353181
sg12
F0.9656447172164917
sg13
F0.004962314287160845
ssg14
(dp306
g11
F0.013061098738970045
sg12
F0.9090390801429749
sg13
F0.004668721686514859
ssg16
(dp307
g11
F0.0
sg12
F0.9413861036300659
sg13
F0.00021388329290348903
sssS'(2.1,2.4)(0.9,1.2)'
p308
(dp309
g9
(dp310
g11
F0.013840592465958106
sg12
F0.958375096321106
sg13
F0.012488394649757045
ssg14
(dp311
g11
F0.01263023016729351
sg12
F0.8745641708374023
sg13
F0.011392882101521274
ssg16
(dp312
g11
F0.0
sg12
F0.9125508666038513
sg13
F0.00038336620374760657
sssS'(0.9,1.2)(0.9,1.2)'
p313
(dp314
g9
(dp315
g11
F0.013987921781408038
sg12
F0.9846450686454773
sg13
F0.007327566194247515
ssg14
(dp316
g11
F0.013423540342980994
sg12
F0.944916844367981
sg13
F0.007011042208654602
ssg16
(dp317
g11
F0.0
sg12
F0.9596522450447083
sg13
F0.0005388416103876287
sssS'(1.2,2.1)(0.0,0.9)'
p318
(dp319
g9
(dp320
g11
F0.01380628479764021
sg12
F0.9644208550453186
sg13
F0.0024982238634897965
ssg14
(dp321
g11
F0.01303632140661656
sg12
F0.9106360673904419
sg13
F0.002354567676990429
ssg16
(dp322
g11
F0.0
sg12
F0.9442309141159058
sg13
F0.00014710323178977018
sssS'(2.1,2.4)(2.1,2.4)'
p323
(dp324
g9
(dp325
g11
F0.013890120385736945
sg12
F0.9588242173194885
sg13
F0.02277573961529114
ssg14
(dp326
g11
F0.012031429440014847
sg12
F0.8305202126502991
sg13
F0.019720402020182277
ssg16
(dp327
g11
F0.0
sg12
F0.8661861419677734
sg13
F0.000565812740477155
ssssg18
(dp328
S'(0.0,1.2)(1.2,2.4)'
p329
(dp330
g9
(dp331
g11
F0.014037985006866907
sg12
F0.97649085521698
sg13
F0.011567046503572391
ssg14
(dp332
g11
F0.012916910340248595
sg12
F0.8985081911087036
sg13
F0.010624069570285909
ssg16
(dp333
g11
F0.0
sg12
F0.9201399087905884
sg13
F0.000653742227525731
sssS'(1.2,2.4)(0.0,1.2)'
p334
(dp335
g9
(dp336
g11
F0.014308496241176008
sg12
F1.0045592784881592
sg13
F0.00800930365668534
ssg14
(dp337
g11
F0.012967799163676505
sg12
F0.9104326963424683
sg13
F0.007215742607197472
ssg16
(dp338
g11
F0.0
sg12
F0.9063006043434143
sg13
F0.0007824423477666661
sssS'(0.0,1.2)(0.0,1.2)'
p339
(dp340
g9
(dp341
g11
F0.013961999369221378
sg12
F0.9817242622375488
sg13
F0.012304499863090079
ssg14
(dp342
g11
F0.01324868628764415
sg12
F0.9315683245658875
sg13
F0.011643567053297482
ssg16
(dp343
g11
F0.0
sg12
F0.9489104151725769
sg13
F0.0008649067999099373
sssS'(1.2,2.4)(1.2,2.4)'
p344
(dp345
g9
(dp346
g11
F0.014420007820329208
sg12
F0.9958863854408264
sg13
F0.020719764279356595
ssg14
(dp347
g11
F0.012575178030793586
sg12
F0.8684772253036499
sg13
F0.017743606989351624
ssg16
(dp348
g11
F0.0
sg12
F0.8720645904541016
sg13
F0.0027305909520156436
sssssssS'Mu17Mu8'
p349
(dp350
g3
(dp351
g5
(dp352
g7
(dp353
g9
(dp354
g11
F0.01378098781764434
sg12
F0.9590257406234741
sg13
F0.0022458176604927384
ssg14
(dp355
g11
F0.012546470464534634
sg12
F0.8731151223182678
sg13
F0.002037057771565263
ssg16
(dp356
g11
F0.0
sg12
F0.9104188084602356
sg13
F0.00018335648434641803
sssg18
(dp357
g9
(dp358
g11
F0.013874076716780611
sg12
F0.9587165117263794
sg13
F0.008276790628073703
ssg14
(dp359
g11
F0.012354862685917074
sg12
F0.8537368774414062
sg13
F0.007346725280780312
ssg16
(dp360
g11
F0.0
sg12
F0.8904998302459717
sg13
F0.000616327691843126
ssssg23
(dp361
g7
(dp362
S'(2.1,2.4)(0.0,0.9)'
p363
(dp364
g9
(dp365
g11
F0.014147054067473385
sg12
F0.99337238073349
sg13
F0.004140359886599356
ssg14
(dp366
g11
F0.012705998034789806
sg12
F0.8921849131584167
sg13
F0.0037072516958257693
ssg16
(dp367
g11
F0.0
sg12
F0.8981373906135559
sg13
F0.0002871068655069361
sssS'(2.1,2.4)(1.2,2.1)'
p368
(dp369
g9
(dp370
g11
F0.013986320465754171
sg12
F0.9574857950210571
sg13
F0.00955015869986271
ssg14
(dp371
g11
F0.01191620848860165
sg12
F0.8157685399055481
sg13
F0.0081320506352357
ssg16
(dp372
g11
F0.0
sg12
F0.8519902229309082
sg13
F0.00028777604439643
sssS'(0.0,0.9)(0.0,0.9)'
p373
(dp374
g9
(dp375
g11
F0.01392924240603025
sg12
F0.9791116118431091
sg13
F0.002518994725733891
ssg14
(dp376
g11
F0.013362018969911413
sg12
F0.9392404556274414
sg13
F0.0024095876169104163
ssg16
(dp377
g11
F0.0
sg12
F0.9592782258987427
sg13
F0.00018522111662301816
sssS'(1.2,2.1)(1.2,2.1)'
p378
(dp379
g9
(dp380
g11
F0.013801368472374795
sg12
F0.9362856149673462
sg13
F0.00832113172102374
ssg14
(dp381
g11
F0.011926166617866484
sg12
F0.8090718388557434
sg13
F0.007186017388646274
ssg16
(dp382
g11
F0.0
sg12
F0.8641293048858643
sg13
F0.000272073746054165
sssS'(0.9,1.2)(0.0,0.9)'
p383
(dp384
g9
(dp385
g11
F0.013778670745642999
sg12
F0.953588604927063
sg13
F0.004248471525011827
ssg14
(dp386
g11
F0.012729466601538293
sg12
F0.8809757232666016
sg13
F0.003921277953138106
ssg16
(dp387
g11
F0.0
sg12
F0.9238530397415161
sg13
F0.00017882427607143048
sssS'(1.2,2.1)(0.9,1.2)'
p388
(dp389
g9
(dp390
g11
F0.013811039012359562
sg12
F0.9460499882698059
sg13
F0.004249651206966178
ssg14
(dp391
g11
F0.012109802012048816
sg12
F0.8295159935951233
sg13
F0.0037213592613082203
ssg16
(dp392
g11
F0.0
sg12
F0.8768205046653748
sg13
F0.00020114900514447254
sssS'(2.1,2.4)(0.9,1.2)'
p393
(dp394
g9
(dp395
g11
F0.014002688840484764
sg12
F0.9684992432594299
sg13
F0.013084730312632815
ssg14
(dp396
g11
F0.01210667287812487
sg12
F0.8373608589172363
sg13
F0.011307560826979039
ssg16
(dp397
g11
F0.0
sg12
F0.8645963072776794
sg13
F0.0003593914756708338
sssS'(0.9,1.2)(0.9,1.2)'
p398
(dp399
g9
(dp400
g11
F0.013833191895916114
sg12
F0.9574877023696899
sg13
F0.014390297038625897
ssg14
(dp401
g11
F0.012307316500240336
sg12
F0.85187166929245
sg13
F0.012792367009775991
ssg16
(dp402
g11
F0.0
sg12
F0.8896946310997009
sg13
F0.0005419586142654437
sssS'(1.2,2.1)(0.0,0.9)'
p403
(dp404
g9
(dp405
g11
F0.013874504340157929
sg12
F0.9593822360038757
sg13
F0.003611113200234014
ssg14
(dp406
g11
F0.012632692705595049
sg12
F0.8735145330429077
sg13
F0.003284687533202939
ssg16
(dp407
g11
F0.0
sg12
F0.9104968905448914
sg13
F0.00015165235727258283
sssS'(2.1,2.4)(2.1,2.4)'
p408
(dp409
g9
(dp410
g11
F0.014234407343943614
sg12
F0.9860698580741882
sg13
F0.0015554220502146713
ssg14
(dp411
g11
F0.01192159891955113
sg12
F0.8258531093597412
sg13
F0.0011750208248368136
ssg16
(dp412
g11
F0.0
sg12
F0.8375198841094971
sg13
F0.0005703865109007136
ssssg18
(dp413
S'(0.0,1.2)(1.2,2.4)'
p414
(dp415
g9
(dp416
g11
F0.013807118374037752
sg12
F0.9612283110618591
sg13
F0.015905626509148205
ssg14
(dp417
g11
F0.012360158929213766
sg12
F0.8604934215545654
sg13
F0.014219157549777307
ssg16
(dp418
g11
F0.0
sg12
F0.8952019214630127
sg13
F0.0007531414143407475
sssS'(1.2,2.4)(0.0,1.2)'
p419
(dp420
g9
(dp421
g11
F0.014013980258811244
sg12
F0.9696160554885864
sg13
F0.011428946138333434
ssg14
(dp422
g11
F0.012367422107941716
sg12
F0.8556919693946838
sg13
F0.010050014956831655
ssg16
(dp423
g11
F0.0
sg12
F0.8825060129165649
sg13
F0.0008787397159901278
sssS'(0.0,1.2)(0.0,1.2)'
p424
(dp425
g9
(dp426
g11
F0.013939211266297907
sg12
F0.9804506897926331
sg13
F0.02134672442879476
ssg14
(dp427
g11
F0.012990125160852104
sg12
F0.9136942028999329
sg13
F0.019872012192703153
ssg16
(dp428
g11
F0.0
sg12
F0.9319124817848206
sg13
F0.0008288458783281215
sssS'(1.2,2.4)(1.2,2.4)'
p429
(dp430
g9
(dp431
g11
F0.013733466884741577
sg12
F0.9274002909660339
sg13
F0.028334586558398323
ssg14
(dp432
g11
F0.011622104767188777
sg12
F0.7848231792449951
sg13
F0.023964593001219222
ssg16
(dp433
g11
F0.0
sg12
F0.8462615609169006
sg13
F0.0008774509311340229
ssssssg97
(dp434
g5
(dp435
g7
(dp436
g9
(dp437
g11
F0.013673366806541803
sg12
F0.9497868418693542
sg13
F0.002289022226980025
ssg14
(dp438
g11
F0.01212317135043671
sg12
F0.8421063423156738
sg13
F0.0020206745362255077
ssg16
(dp439
g11
F0.0
sg12
F0.886626660823822
sg13
F0.00019913628112083173
sssg18
(dp440
g9
(dp441
g11
F0.013741209197624829
sg12
F0.9455277323722839
sg13
F0.008231901792232568
ssg14
(dp442
g11
F0.011881356294723857
sg12
F0.8175519108772278
sg13
F0.007090586295871035
ssg16
(dp443
g11
F0.0
sg12
F0.8646514415740967
sg13
F0.0006565413393241066
ssssg23
(dp444
g7
(dp445
S'(2.1,2.4)(0.0,0.9)'
p446
(dp447
g9
(dp448
g11
F0.013778826256837847
sg12
F0.9640972018241882
sg13
F0.005152528938253762
ssg14
(dp449
g11
F0.01207914025472508
sg12
F0.8451710939407349
sg13
F0.004507866189578134
ssg16
(dp450
g11
F0.0
sg12
F0.8766450881958008
sg13
F0.0002944279667524977
sssS'(2.1,2.4)(1.2,2.1)'
p451
(dp452
g9
(dp453
g11
F0.013537381500934524
sg12
F0.9231905341148376
sg13
F0.009199405876931436
ssg14
(dp454
g11
F0.011181119100650116
sg12
F0.7625036835670471
sg13
F0.007593423589583659
ssg16
(dp455
g11
F0.0
sg12
F0.8259440064430237
sg13
F0.00029405159100954223
sssS'(0.0,0.9)(0.0,0.9)'
p456
(dp457
g9
(dp458
g11
F0.01369975210051103
sg12
F0.9622589349746704
sg13
F0.002601792296061751
ssg14
(dp459
g11
F0.012839760149742025
sg12
F0.9018538594245911
sg13
F0.002429080455082306
ssg16
(dp460
g11
F0.0
sg12
F0.9372256994247437
sg13
F0.00022191470714041383
sssS'(1.2,2.1)(1.2,2.1)'
p461
(dp462
g9
(dp463
g11
F0.013380896373564674
sg12
F0.9057539105415344
sg13
F0.008641924245174674
ssg14
(dp464
g11
F0.011145282019820119
sg12
F0.7544249892234802
sg13
F0.0071932247036741595
ssg16
(dp465
g11
F0.0
sg12
F0.8329249024391174
sg13
F0.0002916120709190992
sssS'(0.9,1.2)(0.0,0.9)'
p466
(dp467
g9
(dp468
g11
F0.013461686290425432
sg12
F0.9292450547218323
sg13
F0.0050204502993775576
ssg14
(dp469
g11
F0.012207240002779647
sg12
F0.8426520228385925
sg13
F0.00454926195425553
ssg16
(dp470
g11
F0.0
sg12
F0.9068135619163513
sg13
F0.0001884746408318168
sssS'(1.2,2.1)(0.9,1.2)'
p471
(dp472
g9
(dp473
g11
F0.013373561888327664
sg12
F0.9111658334732056
sg13
F0.0052513766867600875
ssg14
(dp474
g11
F0.011432382481943195
sg12
F0.7789096236228943
sg13
F0.004462703206918494
ssg16
(dp475
g11
F0.0
sg12
F0.8548494577407837
sg13
F0.0002110296322567386
sssS'(2.1,2.4)(0.9,1.2)'
p476
(dp477
g9
(dp478
g11
F0.013481373546329747
sg12
F0.9218543171882629
sg13
F0.016244997911520506
ssg14
(dp479
g11
F0.011429627099584956
sg12
F0.7815561890602112
sg13
F0.013768416941434903
ssg16
(dp480
g11
F0.0
sg12
F0.8478087782859802
sg13
F0.0003689061818888381
sssS'(0.9,1.2)(0.9,1.2)'
p481
(dp482
g9
(dp483
g11
F0.013459130479392505
sg12
F0.9300545454025269
sg13
F0.014184313371123271
ssg14
(dp484
g11
F0.011808303119122163
sg12
F0.8159788846969604
sg13
F0.01243338677633063
ssg16
(dp485
g11
F0.0
sg12
F0.8773451447486877
sg13
F0.0005644027347602894
sssS'(1.2,2.1)(0.0,0.9)'
p486
(dp487
g9
(dp488
g11
F0.013542649228877789
sg12
F0.9346974492073059
sg13
F0.0036422033854377265
ssg14
(dp489
g11
F0.011965993556613807
sg12
F0.8258785605430603
sg13
F0.003214356538362445
ssg16
(dp490
g11
F0.0
sg12
F0.8835784792900085
sg13
F0.00016757445983563558
sssS'(2.1,2.4)(2.1,2.4)'
p491
(dp492
g9
(dp493
g11
F0.013756587584628272
sg12
F0.9479653835296631
sg13
F0.02410836792302737
ssg14
(dp494
g11
F0.011231621359818374
sg12
F0.7739701271057129
sg13
F0.019675509029999594
ssg16
(dp495
g11
F0.0
sg12
F0.8164540529251099
sg13
F0.0005801182641778444
ssssg18
(dp496
S'(0.0,1.2)(1.2,2.4)'
p497
(dp498
g9
(dp499
g11
F0.013607185185056244
sg12
F0.9499422907829285
sg13
F0.013112989439266629
ssg14
(dp500
g11
F0.011832501668436562
sg12
F0.8260484337806702
sg13
F0.011376031435041992
ssg16
(dp501
g11
F0.0
sg12
F0.8695774674415588
sg13
F0.0008201822375083325
sssS'(1.2,2.4)(0.0,1.2)'
p502
(dp503
g9
(dp504
g11
F0.013778990653070654
sg12
F0.9473385810852051
sg13
F0.010749500920165859
ssg14
(dp505
g11
F0.011801644311129452
sg12
F0.811391294002533
sg13
F0.009164729481800433
ssg16
(dp506
g11
F0.0
sg12
F0.8564955592155457
sg13
F0.0009271527927951818
sssS'(0.0,1.2)(0.0,1.2)'
p507
(dp508
g9
(dp509
g11
F0.013765339057637046
sg12
F0.9700675010681152
sg13
F0.018023644291430937
ssg14
(dp510
g11
F0.012539823030792426
sg12
F0.8837032318115234
sg13
F0.016382357580868923
ssg16
(dp511
g11
F0.0
sg12
F0.9109708666801453
sg13
F0.0009057594883509702
sssS'(1.2,2.4)(1.2,2.4)'
p512
(dp513
g9
(dp514
g11
F0.013419021433443173
sg12
F0.8952750563621521
sg13
F0.02813432095061197
ssg14
(dp515
g11
F0.010950696043640639
sg12
F0.730596125125885
sg13
F0.02294452539850301
ssg16
(dp516
g11
F0.0
sg12
F0.8160577416419983
sg13
F0.0009167527894071262
sssssss.